Certificate:
    Data:
        Version: 3 (0x2)
        Serial Number: 3 (0x3)
    Signature Algorithm: sha256WithRSAEncryption
        Issuer: C=UA, ST=UA, L=Kyiv, O=Kyiv, OU=MyOrganizationalUnit, CN=Kyiv CA/name=nefertest/emailAddress=me@myhost.mydomain
        Validity
            Not Before: Jul 21 11:25:53 2015 GMT
            Not After : Jul 18 11:25:53 2025 GMT
        Subject: C=KG, ST=NA, O=OpenVPN-TEST, CN=Test-Client/emailAddress=me@myhost.mydomain
        Subject Public Key Info:
            Public Key Algorithm: rsaEncryption
                Public-Key: (2048 bit)
                Modulus:
                    00:ba:fb:43:c4:c0:bd:fd:d4:fc:ea:0c:f3:c6:12:
                    1f:34:d1:2f:cf:d7:c0:33:9f:33:eb:6d:e7:fc:6c:
                    77:9a:c8:43:85:0b:f6:70:b5:a4:d9:6a:71:ec:db:
                    9b:b1:97:ff:6c:4c:fa:4e:e0:db:08:0b:66:81:e0:
                    b5:aa:40:e0:06:c7:eb:16:a7:43:b6:ec:99:70:33:
                    93:79:c5:65:f5:05:80:14:80:08:15:a4:70:f3:7a:
                    8e:24:59:ed:30:cb:ad:0b:1f:b4:ac:fc:ff:ee:ed:
                    bf:f3:da:ee:ca:47:dd:26:b1:d8:f9:7d:35:e8:c7:
                    1f:97:22:79:b9:cf:27:d9:b3:85:b7:9e:22:9a:62:
                    40:da:2a:08:21:e9:38:1c:9b:4e:f3:f1:d5:f0:54:
                    41:87:7b:2b:6d:5e:43:fb:c8:c8:2e:c7:f5:24:a0:
                    c5:0b:a4:f1:a2:08:67:c6:65:5c:5c:93:96:c6:f5:
                    7e:cf:6e:27:ee:97:6c:0c:94:ed:94:d5:ea:2a:f6:
                    11:a7:97:c7:29:e5:55:cc:07:93:54:46:45:5a:be:
                    bd:1a:e8:15:9d:76:1d:13:a2:34:9a:d5:fb:45:1b:
                    51:38:a8:39:47:61:10:5b:83:26:a7:fe:39:ca:b0:
                    96:28:bf:84:6c:06:33:21:1b:d5:1e:51:a7:ac:04:
                    29:c7
                Exponent: 65537 (0x10001)
        X509v3 extensions:
            X509v3 Basic Constraints: 
                CA:FALSE
            X509v3 Subject Key Identifier: 
                6A:4A:6C:44:08:C9:06:A4:4B:FF:80:69:7B:33:B8:81:86:6E:2C:94
            X509v3 Authority Key Identifier: 
                keyid:EF:2B:EA:0F:2B:B6:8D:BF:A1:9C:CA:AC:62:4E:57:37:51:F2:DB:30
                DirName:/C=UA/ST=UA/L=Kyiv/O=Kyiv/OU=MyOrganizationalUnit/CN=Kyiv CA/name=nefertest/emailAddress=me@myhost.mydomain
                serial:9D:19:AA:B7:5E:B0:2B:15

    Signature Algorithm: sha256WithRSAEncryption
         8d:14:b7:c9:b6:bb:b0:25:ff:ff:12:c7:99:c9:d8:43:b7:e0:
         cd:05:8b:b7:26:a5:ae:9a:9d:21:19:b9:80:15:6d:b7:b5:1a:
         a5:8d:70:00:7f:5e:e0:af:35:eb:f3:c7:e8:b4:09:31:f7:75:
         e9:10:26:7f:1b:b9:66:30:78:83:13:e2:d5:e2:1b:f2:12:e6:
         c5:b6:9b:d3:e4:09:11:9d:a3:10:0b:c8:a8:d4:1e:f0:7f:42:
         0d:6e:3e:86:14:c5:4e:07:7a:55:46:ed:c9:31:5d:90:06:96:
         a4:2f:f7:2c:22:c5:22:53:0e:8d:d3:34:7b:27:c8:ce:bf:ed:
         ae:c2:da:12:d3:f8:c0:58:d6:84:11:7c:5a:e3:5f:37:89:e8:
         de:4b:a4:5e:c4:62:e7:16:c6:d9:d5:83:6a:27:ce:53:4b:f9:
         a8:7f:0e:8d:c8:ed:d6:c5:0b:6c:b6:73:71:ab:5d:09:07:db:
         f0:a8:b1:ad:4e:f9:f9:a9:f1:ff:f4:2b:5d:c8:5b:3d:9b:f1:
         19:18:49:2a:92:e4:2d:71:80:78:4c:cb:62:41:8c:d7:31:a1:
         21:73:fa:d3:2c:f5:8d:af:d0:10:bc:3d:42:56:55:32:36:54:
         02:5e:6b:47:fa:b4:0a:ba:ce:d4:fb:33:4f:35:28:38:8c:65:
         49:a5:a0:1d
-----BEGIN CERTIFICATE-----
MIIEjjCCA3agAwIBAgIBAzANBgkqhkiG9w0BAQsFADCBoDELMAkGA1UEBhMCVUEx
CzAJBgNVBAgTAlVBMQ0wCwYDVQQHEwRLeWl2MQ0wCwYDVQQKEwRLeWl2MR0wGwYD
VQQLExRNeU9yZ2FuaXphdGlvbmFsVW5pdDEQMA4GA1UEAxMHS3lpdiBDQTESMBAG
A1UEKRMJbmVmZXJ0ZXN0MSEwHwYJKoZIhvcNAQkBFhJtZUBteWhvc3QubXlkb21h
aW4wHhcNMTUwNzIxMTEyNTUzWhcNMjUwNzE4MTEyNTUzWjBqMQswCQYDVQQGEwJL
RzELMAkGA1UECBMCTkExFTATBgNVBAoTDE9wZW5WUE4tVEVTVDEUMBIGA1UEAxML
VGVzdC1DbGllbnQxITAfBgkqhkiG9w0BCQEWEm1lQG15aG9zdC5teWRvbWFpbjCC
ASIwDQYJKoZIhvcNAQEBBQADggEPADCCAQoCggEBALr7Q8TAvf3U/OoM88YSHzTR
L8/XwDOfM+tt5/xsd5rIQ4UL9nC1pNlqcezbm7GX/2xM+k7g2wgLZoHgtapA4AbH
6xanQ7bsmXAzk3nFZfUFgBSACBWkcPN6jiRZ7TDLrQsftKz8/+7tv/Pa7spH3Sax
2Pl9NejHH5ciebnPJ9mzhbeeIppiQNoqCCHpOBybTvPx1fBUQYd7K21eQ/vIyC7H
9SSgxQuk8aIIZ8ZlXFyTlsb1fs9uJ+6XbAyU7ZTV6ir2EaeXxynlVcwHk1RGRVq+
vRroFZ12HROiNJrV+0UbUTioOUdhEFuDJqf+Ocqwlii/hGwGMyEb1R5Rp6wEKccC
AwEAAaOCAQYwggECMAkGA1UdEwQCMAAwHQYDVR0OBBYEFGpKbEQIyQakS/+AaXsz
uIGGbiyUMIHVBgNVHSMEgc0wgcqAFO8r6g8rto2/oZzKrGJOVzdR8tswoYGmpIGj
MIGgMQswCQYDVQQGEwJVQTELMAkGA1UECBMCVUExDTALBgNVBAcTBEt5aXYxDTAL
BgNVBAoTBEt5aXYxHTAbBgNVBAsTFE15T3JnYW5pemF0aW9uYWxVbml0MRAwDgYD
VQQDEwdLeWl2IENBMRIwEAYDVQQpEwluZWZlcnRlc3QxITAfBgkqhkiG9w0BCQEW
Em1lQG15aG9zdC5teWRvbWFpboIJAJ0ZqrdesCsVMA0GCSqGSIb3DQEBCwUAA4IB
AQCNFLfJtruwJf//EseZydhDt+DNBYu3JqWump0hGbmAFW23tRqljXAAf17grzXr
88fotAkx93XpECZ/G7lmMHiDE+LV4hvyEubFtpvT5AkRnaMQC8io1B7wf0INbj6G
FMVOB3pVRu3JMV2QBpakL/csIsUiUw6N0zR7J8jOv+2uwtoS0/jAWNaEEXxa4183
iejeS6RexGLnFsbZ1YNqJ85TS/mofw6NyO3WxQtstnNxq10JB9vwqLGtTvn5qfH/
9CtdyFs9m/EZGEkqkuQtcYB4TMtiQYzXMaEhc/rTLPWNr9AQvD1CVlUyNlQCXmtH
+rQKus7U+zNPNSg4jGVJpaAd
-----END CERTIFICATE-----
