Certificate:
    Data:
        Version: 3 (0x2)
        Serial Number: 4 (0x4)
    Signature Algorithm: sha256WithRSAEncryption
        Issuer: C=UA, ST=UA, L=Kyiv, O=Kyiv, OU=MyOrganizationalUnit, CN=Kyiv CA/name=nefertest/emailAddress=me@myhost.mydomain
        Validity
            Not Before: Jul 26 03:44:35 2015 GMT
            Not After : Jul 23 03:44:35 2025 GMT
        Subject: C=KG, ST=NA, O=OpenVPN-TEST, CN=Test-Client/emailAddress=me@myhost.mydomain
        Subject Public Key Info:
            Public Key Algorithm: rsaEncryption
                Public-Key: (2048 bit)
                Modulus:
                    00:e2:24:bd:75:ff:77:0b:22:08:34:a4:63:1d:75:
                    f5:00:62:cf:a5:4c:9e:ff:09:fb:54:8b:d0:32:95:
                    ef:b3:66:0d:d1:94:e5:cd:05:ea:1b:88:73:1b:7d:
                    30:db:e9:f1:e9:62:e7:cf:e3:12:f7:b7:62:13:88:
                    80:81:0b:e5:48:c3:f5:91:c5:f2:f5:9d:a4:15:a5:
                    4b:20:58:3d:7c:ae:4f:08:15:4a:90:f6:7f:69:4b:
                    62:0f:d7:73:27:e2:fb:95:55:ba:be:63:94:e3:34:
                    e1:d9:0b:b6:08:be:1a:b2:41:0c:16:6f:77:dc:f5:
                    2f:48:e0:a7:ec:7c:c1:9e:0c:3d:2d:e9:47:3e:ad:
                    11:fe:8e:0d:ec:e6:5f:c4:88:68:7e:5d:35:e3:fc:
                    ec:e3:78:d8:7a:87:96:59:70:47:8c:22:90:c6:fb:
                    af:8a:0d:75:3a:9a:69:00:02:1d:fc:7e:b9:20:9c:
                    2d:03:ff:f6:77:49:13:09:32:05:b7:5a:c6:d4:0f:
                    f9:ca:37:6a:95:b6:5c:e2:8c:f9:06:a2:f0:d2:27:
                    69:42:59:db:4e:ca:2b:d2:1f:be:6f:b8:f0:b2:ce:
                    01:55:c7:eb:ec:bd:0a:78:25:8d:5c:da:b3:74:04:
                    4a:8b:57:7e:8a:3f:88:a5:17:d9:4c:d7:47:bf:1e:
                    a2:8d
                Exponent: 65537 (0x10001)
        X509v3 extensions:
            X509v3 Basic Constraints: 
                CA:FALSE
            X509v3 Subject Key Identifier: 
                32:94:97:56:42:40:2B:A6:0C:73:B6:63:B3:B3:F5:A1:27:9F:C8:4D
            X509v3 Authority Key Identifier: 
                keyid:EF:2B:EA:0F:2B:B6:8D:BF:A1:9C:CA:AC:62:4E:57:37:51:F2:DB:30
                DirName:/C=UA/ST=UA/L=Kyiv/O=Kyiv/OU=MyOrganizationalUnit/CN=Kyiv CA/name=nefertest/emailAddress=me@myhost.mydomain
                serial:9D:19:AA:B7:5E:B0:2B:15

    Signature Algorithm: sha256WithRSAEncryption
         65:10:c3:6b:0c:40:09:30:88:06:6b:f8:2c:f5:cd:08:66:05:
         56:b8:4f:da:a7:0e:2c:68:6d:58:19:d3:52:97:08:72:81:dc:
         0e:d7:65:a9:d1:2e:ff:17:19:a3:3a:d7:3b:66:ff:67:92:4b:
         9a:2e:ec:12:d8:e8:99:dd:bc:1e:bb:16:bd:8b:1b:17:39:1f:
         5c:78:0b:b7:89:0e:ba:63:10:98:d3:d1:ab:71:45:b1:dd:d4:
         68:a0:48:83:21:46:c1:0a:38:b2:c6:22:20:10:1a:7f:6d:b2:
         d1:11:77:9f:28:33:83:8e:6c:df:7d:90:36:f1:06:1c:b6:6c:
         53:de:07:29:54:bc:3d:94:47:e7:d0:db:c0:36:cf:25:bf:47:
         1e:d1:33:4c:1f:0b:ec:45:ae:be:79:81:6f:cc:b4:92:a2:cb:
         83:88:84:61:5c:13:f3:44:44:31:56:49:b9:73:ce:73:2e:cb:
         75:11:11:24:c1:c6:5b:56:b5:20:4a:c5:56:d8:b2:48:cb:52:
         34:9e:46:fc:13:6b:4f:53:9c:51:c3:5e:4f:d6:6d:13:91:3b:
         82:45:bb:99:a8:4c:c5:d1:bb:06:41:e8:b9:0b:01:58:10:94:
         33:47:73:dc:59:22:e6:f8:06:b8:4e:d4:cf:91:19:1c:f7:b4:
         8d:45:3f:50
-----BEGIN CERTIFICATE-----
MIIEjjCCA3agAwIBAgIBBDANBgkqhkiG9w0BAQsFADCBoDELMAkGA1UEBhMCVUEx
CzAJBgNVBAgTAlVBMQ0wCwYDVQQHEwRLeWl2MQ0wCwYDVQQKEwRLeWl2MR0wGwYD
VQQLExRNeU9yZ2FuaXphdGlvbmFsVW5pdDEQMA4GA1UEAxMHS3lpdiBDQTESMBAG
A1UEKRMJbmVmZXJ0ZXN0MSEwHwYJKoZIhvcNAQkBFhJtZUBteWhvc3QubXlkb21h
aW4wHhcNMTUwNzI2MDM0NDM1WhcNMjUwNzIzMDM0NDM1WjBqMQswCQYDVQQGEwJL
RzELMAkGA1UECBMCTkExFTATBgNVBAoTDE9wZW5WUE4tVEVTVDEUMBIGA1UEAxML
VGVzdC1DbGllbnQxITAfBgkqhkiG9w0BCQEWEm1lQG15aG9zdC5teWRvbWFpbjCC
ASIwDQYJKoZIhvcNAQEBBQADggEPADCCAQoCggEBAOIkvXX/dwsiCDSkYx119QBi
z6VMnv8J+1SL0DKV77NmDdGU5c0F6huIcxt9MNvp8eli58/jEve3YhOIgIEL5UjD
9ZHF8vWdpBWlSyBYPXyuTwgVSpD2f2lLYg/Xcyfi+5VVur5jlOM04dkLtgi+GrJB
DBZvd9z1L0jgp+x8wZ4MPS3pRz6tEf6ODezmX8SIaH5dNeP87ON42HqHlllwR4wi
kMb7r4oNdTqaaQACHfx+uSCcLQP/9ndJEwkyBbdaxtQP+co3apW2XOKM+Qai8NIn
aUJZ207KK9Ifvm+48LLOAVXH6+y9CngljVzas3QESotXfoo/iKUX2UzXR78eoo0C
AwEAAaOCAQYwggECMAkGA1UdEwQCMAAwHQYDVR0OBBYEFDKUl1ZCQCumDHO2Y7Oz
9aEnn8hNMIHVBgNVHSMEgc0wgcqAFO8r6g8rto2/oZzKrGJOVzdR8tswoYGmpIGj
MIGgMQswCQYDVQQGEwJVQTELMAkGA1UECBMCVUExDTALBgNVBAcTBEt5aXYxDTAL
BgNVBAoTBEt5aXYxHTAbBgNVBAsTFE15T3JnYW5pemF0aW9uYWxVbml0MRAwDgYD
VQQDEwdLeWl2IENBMRIwEAYDVQQpEwluZWZlcnRlc3QxITAfBgkqhkiG9w0BCQEW
Em1lQG15aG9zdC5teWRvbWFpboIJAJ0ZqrdesCsVMA0GCSqGSIb3DQEBCwUAA4IB
AQBlEMNrDEAJMIgGa/gs9c0IZgVWuE/apw4saG1YGdNSlwhygdwO12Wp0S7/Fxmj
Otc7Zv9nkkuaLuwS2OiZ3bweuxa9ixsXOR9ceAu3iQ66YxCY09GrcUWx3dRooEiD
IUbBCjiyxiIgEBp/bbLREXefKDODjmzffZA28QYctmxT3gcpVLw9lEfn0NvANs8l
v0ce0TNMHwvsRa6+eYFvzLSSosuDiIRhXBPzREQxVkm5c85zLst1EREkwcZbVrUg
SsVW2LJIy1I0nkb8E2tPU5xRw15P1m0TkTuCRbuZqEzF0bsGQei5CwFYEJQzR3Pc
WSLm+Aa4TtTPkRkc97SNRT9Q
-----END CERTIFICATE-----
