Certificate:
    Data:
        Version: 3 (0x2)
        Serial Number:
            64:79:89:d4:4e:27:fe:f4:ec:19:63:0b
    Signature Algorithm: sha256WithRSAEncryption
        Issuer: C=UA, ST=UA, L=Kyiv, O=Kyiv, OU=MyOrganizationalUnit, CN=Kyiv CA/name=nefertest/emailAddress=me@myhost.mydomain
        Validity
            Not Before: Jul 27 05:55:39 2015 GMT
            Not After : Jul 24 05:55:39 2025 GMT
        Subject: C=UA, ST=UA, L=Kyiv, O=Kyiv, OU=MyOrganizationalUnit, CN=nefer/name=nefertest/emailAddress=me@myhost.mydomain
        Subject Public Key Info:
            Public Key Algorithm: rsaEncryption
                Public-Key: (2048 bit)
                Modulus:
                    00:aa:ee:8a:0e:0d:13:70:5a:1e:71:99:53:cf:c3:
                    20:df:c8:88:ee:6c:81:cc:47:d6:10:11:e6:9a:e4:
                    de:4b:b7:13:ae:0a:af:99:65:70:9e:b2:b2:38:c6:
                    ea:8e:a8:7b:6c:ae:62:ff:7a:a1:b0:70:ae:37:a7:
                    b2:58:81:bd:50:04:d0:79:c7:a1:a3:31:55:73:9e:
                    f9:cb:b3:d1:7a:42:11:51:18:32:95:cf:83:db:72:
                    00:70:3b:5f:77:f7:bd:44:1a:3e:cc:c8:7a:9c:a5:
                    56:8f:da:84:82:83:b2:f9:e7:e2:11:8c:b3:9d:65:
                    73:53:13:7c:e4:82:ab:50:dc:cb:b9:79:a0:07:65:
                    86:bf:08:cd:13:7c:f6:c1:f7:eb:a4:ee:8a:61:3b:
                    ad:bc:79:f3:a1:75:45:e6:63:2c:3b:4b:4c:f9:d9:
                    7f:9e:ea:b4:55:98:90:f0:c5:ae:3d:e3:98:2f:5d:
                    1c:d0:0b:65:a6:c2:3e:72:48:ec:2f:01:cd:5d:87:
                    c4:ab:56:be:47:5e:71:89:04:5b:13:0e:16:89:54:
                    3a:b8:f7:0e:02:bf:16:b0:34:4b:6d:90:ff:3b:2b:
                    3c:fd:5a:1e:01:b8:80:f1:5a:d9:c2:1f:84:e1:ff:
                    07:d2:01:b3:d9:e4:ff:b2:41:fd:e7:5c:24:7e:0f:
                    62:e7
                Exponent: 65537 (0x10001)
        X509v3 extensions:
            X509v3 Basic Constraints: 
                CA:FALSE
            X509v3 Subject Key Identifier: 
                8D:7E:60:D8:EB:58:38:1E:87:E1:13:C5:8B:F1:57:50:86:A3:45:EC
            X509v3 Authority Key Identifier: 
                keyid:EF:2B:EA:0F:2B:B6:8D:BF:A1:9C:CA:AC:62:4E:57:37:51:F2:DB:30
                DirName:/C=UA/ST=UA/L=Kyiv/O=Kyiv/OU=MyOrganizationalUnit/CN=Kyiv CA/name=nefertest/emailAddress=me@myhost.mydomain
                serial:9D:19:AA:B7:5E:B0:2B:15

    Signature Algorithm: sha256WithRSAEncryption
         a7:64:e9:6d:1c:27:ed:ba:83:82:17:eb:ec:e2:df:52:c5:8b:
         5b:cd:31:72:03:0f:b6:48:42:8b:0e:51:58:be:92:f4:1e:1a:
         76:4f:1e:65:f8:b1:54:36:b4:6a:12:6d:82:d3:1b:1b:14:00:
         ca:26:cf:9c:7e:c1:3e:e3:a1:bb:9c:40:04:e5:fb:36:61:b3:
         58:54:68:11:71:ec:dd:28:3e:f8:ca:f7:7c:64:3c:b7:cf:c0:
         2f:90:e9:f9:58:af:41:a7:1f:db:f6:41:8c:ed:4f:2b:c9:09:
         f9:11:37:b1:60:aa:d5:59:19:4d:51:d5:9a:4c:9d:78:0a:a4:
         02:56:ce:e9:1d:cf:2d:27:18:54:90:f7:11:e9:42:04:bb:b6:
         2a:0f:6f:0d:d9:91:50:e9:d9:c4:f9:91:ec:0a:0c:fa:f6:66:
         f0:70:75:74:0e:e0:97:a7:06:ff:90:59:da:88:f0:be:15:2c:
         cd:16:e2:43:57:29:2d:e2:dd:0e:72:d7:75:ca:3b:77:98:c7:
         d5:1b:fd:a8:91:1b:3c:77:66:94:5c:f8:7f:01:1b:a7:14:60:
         8f:5a:1d:cb:cc:22:d4:5a:c8:39:d0:68:ed:6f:51:aa:ac:7d:
         14:c9:76:80:d0:09:03:ed:d2:f5:6d:d7:cd:1e:d6:41:f9:87:
         49:ae:72:e8
-----BEGIN CERTIFICATE-----
MIIEzjCCA7agAwIBAgIMZHmJ1E4n/vTsGWMLMA0GCSqGSIb3DQEBCwUAMIGgMQsw
CQYDVQQGEwJVQTELMAkGA1UECBMCVUExDTALBgNVBAcTBEt5aXYxDTALBgNVBAoT
BEt5aXYxHTAbBgNVBAsTFE15T3JnYW5pemF0aW9uYWxVbml0MRAwDgYDVQQDEwdL
eWl2IENBMRIwEAYDVQQpEwluZWZlcnRlc3QxITAfBgkqhkiG9w0BCQEWEm1lQG15
aG9zdC5teWRvbWFpbjAeFw0xNTA3MjcwNTU1MzlaFw0yNTA3MjQwNTU1MzlaMIGe
MQswCQYDVQQGEwJVQTELMAkGA1UECBMCVUExDTALBgNVBAcTBEt5aXYxDTALBgNV
BAoTBEt5aXYxHTAbBgNVBAsTFE15T3JnYW5pemF0aW9uYWxVbml0MQ4wDAYDVQQD
EwVuZWZlcjESMBAGA1UEKRMJbmVmZXJ0ZXN0MSEwHwYJKoZIhvcNAQkBFhJtZUBt
eWhvc3QubXlkb21haW4wggEiMA0GCSqGSIb3DQEBAQUAA4IBDwAwggEKAoIBAQCq
7ooODRNwWh5xmVPPwyDfyIjubIHMR9YQEeaa5N5LtxOuCq+ZZXCesrI4xuqOqHts
rmL/eqGwcK43p7JYgb1QBNB5x6GjMVVznvnLs9F6QhFRGDKVz4PbcgBwO193971E
Gj7MyHqcpVaP2oSCg7L55+IRjLOdZXNTE3zkgqtQ3Mu5eaAHZYa/CM0TfPbB9+uk
7ophO628efOhdUXmYyw7S0z52X+e6rRVmJDwxa4945gvXRzQC2Wmwj5ySOwvAc1d
h8SrVr5HXnGJBFsTDhaJVDq49w4CvxawNEttkP87Kzz9Wh4BuIDxWtnCH4Th/wfS
AbPZ5P+yQf3nXCR+D2LnAgMBAAGjggEGMIIBAjAJBgNVHRMEAjAAMB0GA1UdDgQW
BBSNfmDY61g4HofhE8WL8VdQhqNF7DCB1QYDVR0jBIHNMIHKgBTvK+oPK7aNv6Gc
yqxiTlc3UfLbMKGBpqSBozCBoDELMAkGA1UEBhMCVUExCzAJBgNVBAgTAlVBMQ0w
CwYDVQQHEwRLeWl2MQ0wCwYDVQQKEwRLeWl2MR0wGwYDVQQLExRNeU9yZ2FuaXph
dGlvbmFsVW5pdDEQMA4GA1UEAxMHS3lpdiBDQTESMBAGA1UEKRMJbmVmZXJ0ZXN0
MSEwHwYJKoZIhvcNAQkBFhJtZUBteWhvc3QubXlkb21haW6CCQCdGaq3XrArFTAN
BgkqhkiG9w0BAQsFAAOCAQEAp2TpbRwn7bqDghfr7OLfUsWLW80xcgMPtkhCiw5R
WL6S9B4adk8eZfixVDa0ahJtgtMbGxQAyibPnH7BPuOhu5xABOX7NmGzWFRoEXHs
3Sg++Mr3fGQ8t8/AL5Dp+VivQacf2/ZBjO1PK8kJ+RE3sWCq1VkZTVHVmkydeAqk
AlbO6R3PLScYVJD3EelCBLu2Kg9vDdmRUOnZxPmR7AoM+vZm8HB1dA7gl6cG/5BZ
2ojwvhUszRbiQ1cpLeLdDnLXdco7d5jH1Rv9qJEbPHdmlFz4fwEbpxRgj1ody8wi
1FrIOdBo7W9Rqqx9FMl2gNAJA+3S9W3XzR7WQfmHSa5y6A==
-----END CERTIFICATE-----
