Certificate:
    Data:
        Version: 3 (0x2)
        Serial Number: 1 (0x1)
    Signature Algorithm: sha256WithRSAEncryption
        Issuer: C=UA, ST=UA, L=Kyiv, O=Kyiv, OU=MyOrganizationalUnit, CN=Kyiv CA/name=nefertest/emailAddress=me@myhost.mydomain
        Validity
            Not Before: Jul  1 20:42:54 2015 GMT
            Not After : Jun 28 20:42:54 2025 GMT
        Subject: C=UA, ST=UA, L=Kyiv, O=Kyiv, OU=MyOrganizationalUnit, CN=server/name=nefertest/emailAddress=me@myhost.mydomain
        Subject Public Key Info:
            Public Key Algorithm: rsaEncryption
                Public-Key: (2048 bit)
                Modulus:
                    00:b1:50:6c:97:82:6c:fe:22:e8:f4:2a:69:71:12:
                    ee:b3:0b:6c:fa:ff:14:8b:8e:14:0c:a8:e8:f4:56:
                    99:3a:ae:6b:65:4f:4f:0f:ec:89:f1:f5:89:75:7f:
                    b5:d5:cd:1a:f2:e1:0f:74:7f:61:36:be:8a:87:7b:
                    4f:af:9d:6f:da:cc:c0:72:c6:d4:51:e3:37:40:84:
                    a2:50:3e:b5:39:78:6e:4e:a2:c9:b3:b4:76:73:c2:
                    10:ec:04:62:da:e8:66:cb:0d:2b:f0:fb:b4:ab:86:
                    c9:30:28:cd:83:54:86:53:82:04:a8:f4:d4:73:54:
                    0f:45:24:cc:61:cb:24:06:65:a8:df:2d:35:3a:c6:
                    15:ac:7e:08:38:e2:da:30:47:bf:0f:c5:9e:17:d0:
                    74:8a:a2:8b:78:26:a7:c0:4e:53:b0:59:68:d9:e8:
                    7d:c5:8e:36:25:79:25:da:6c:cd:15:48:53:9c:cd:
                    27:de:f4:31:45:f3:12:4d:00:25:15:a0:65:f4:20:
                    78:91:04:85:42:df:f4:0e:60:af:e1:81:41:81:d9:
                    44:d9:61:1d:a3:fc:83:de:36:9a:7a:8d:5b:f6:7b:
                    78:95:8a:32:ce:44:dc:7f:42:1d:e6:07:6a:37:07:
                    a2:c0:b5:6f:86:6b:41:29:d0:c7:02:6c:b0:35:e4:
                    0d:5b
                Exponent: 65537 (0x10001)
        X509v3 extensions:
            X509v3 Basic Constraints: 
                CA:FALSE
            Netscape Cert Type: 
                SSL Server
            Netscape Comment: 
                Easy-RSA Generated Server Certificate
            X509v3 Subject Key Identifier: 
                11:25:89:40:01:3A:8B:23:61:95:F1:09:FA:F0:4D:02:49:32:28:C3
            X509v3 Authority Key Identifier: 
                keyid:EF:2B:EA:0F:2B:B6:8D:BF:A1:9C:CA:AC:62:4E:57:37:51:F2:DB:30
                DirName:/C=UA/ST=UA/L=Kyiv/O=Kyiv/OU=MyOrganizationalUnit/CN=Kyiv CA/name=nefertest/emailAddress=me@myhost.mydomain
                serial:9D:19:AA:B7:5E:B0:2B:15

            X509v3 Extended Key Usage: 
                TLS Web Server Authentication
            X509v3 Key Usage: 
                Digital Signature, Key Encipherment
    Signature Algorithm: sha256WithRSAEncryption
         64:df:5b:4e:14:7a:ff:90:7e:b1:d5:cb:7e:94:bf:60:24:74:
         d9:56:2f:90:f6:52:98:fb:43:45:df:1c:c7:a6:bc:f7:f4:cf:
         82:70:5b:5b:ff:91:bd:7a:14:36:7e:ff:23:1c:e6:1d:ac:27:
         7b:1c:f6:a9:33:1d:5b:69:eb:2d:39:2a:4a:a4:ef:6a:44:98:
         06:c2:cf:f5:69:3b:54:86:fd:56:5c:99:9b:c1:f2:dd:0a:c8:
         82:5a:db:c5:62:60:23:c2:1a:5f:47:a0:ad:d0:37:14:3e:47:
         2f:db:b1:d3:bb:21:de:bb:07:c4:9e:00:29:3c:68:57:4f:65:
         35:bd:c3:78:c8:5c:b6:6c:66:7a:7b:ba:45:7f:64:c7:67:fa:
         3c:5e:db:18:a1:bf:ef:5c:c4:35:52:10:b0:e8:eb:56:b5:dc:
         04:91:37:33:00:3d:02:dc:84:36:bf:b1:6f:c7:59:1d:5b:82:
         be:99:3e:62:2b:3a:f3:3a:b6:cd:3b:07:8a:fd:6e:ed:81:24:
         70:cb:e9:26:f0:5f:50:fb:19:1f:1a:03:a8:e1:5e:50:f0:d7:
         e5:65:5e:b5:c0:00:cf:2f:00:fb:84:f5:23:81:53:5e:38:29:
         10:f9:0d:96:f1:01:b7:05:96:5a:b7:47:47:be:a5:8f:ab:b5:
         ac:16:71:0c
-----BEGIN CERTIFICATE-----
MIIFLzCCBBegAwIBAgIBATANBgkqhkiG9w0BAQsFADCBoDELMAkGA1UEBhMCVUEx
CzAJBgNVBAgTAlVBMQ0wCwYDVQQHEwRLeWl2MQ0wCwYDVQQKEwRLeWl2MR0wGwYD
VQQLExRNeU9yZ2FuaXphdGlvbmFsVW5pdDEQMA4GA1UEAxMHS3lpdiBDQTESMBAG
A1UEKRMJbmVmZXJ0ZXN0MSEwHwYJKoZIhvcNAQkBFhJtZUBteWhvc3QubXlkb21h
aW4wHhcNMTUwNzAxMjA0MjU0WhcNMjUwNjI4MjA0MjU0WjCBnzELMAkGA1UEBhMC
VUExCzAJBgNVBAgTAlVBMQ0wCwYDVQQHEwRLeWl2MQ0wCwYDVQQKEwRLeWl2MR0w
GwYDVQQLExRNeU9yZ2FuaXphdGlvbmFsVW5pdDEPMA0GA1UEAxMGc2VydmVyMRIw
EAYDVQQpEwluZWZlcnRlc3QxITAfBgkqhkiG9w0BCQEWEm1lQG15aG9zdC5teWRv
bWFpbjCCASIwDQYJKoZIhvcNAQEBBQADggEPADCCAQoCggEBALFQbJeCbP4i6PQq
aXES7rMLbPr/FIuOFAyo6PRWmTqua2VPTw/sifH1iXV/tdXNGvLhD3R/YTa+iod7
T6+db9rMwHLG1FHjN0CEolA+tTl4bk6iybO0dnPCEOwEYtroZssNK/D7tKuGyTAo
zYNUhlOCBKj01HNUD0UkzGHLJAZlqN8tNTrGFax+CDji2jBHvw/FnhfQdIqii3gm
p8BOU7BZaNnofcWONiV5JdpszRVIU5zNJ970MUXzEk0AJRWgZfQgeJEEhULf9A5g
r+GBQYHZRNlhHaP8g942mnqNW/Z7eJWKMs5E3H9CHeYHajcHosC1b4ZrQSnQxwJs
sDXkDVsCAwEAAaOCAXEwggFtMAkGA1UdEwQCMAAwEQYJYIZIAYb4QgEBBAQDAgZA
MDQGCWCGSAGG+EIBDQQnFiVFYXN5LVJTQSBHZW5lcmF0ZWQgU2VydmVyIENlcnRp
ZmljYXRlMB0GA1UdDgQWBBQRJYlAATqLI2GV8Qn68E0CSTIowzCB1QYDVR0jBIHN
MIHKgBTvK+oPK7aNv6GcyqxiTlc3UfLbMKGBpqSBozCBoDELMAkGA1UEBhMCVUEx
CzAJBgNVBAgTAlVBMQ0wCwYDVQQHEwRLeWl2MQ0wCwYDVQQKEwRLeWl2MR0wGwYD
VQQLExRNeU9yZ2FuaXphdGlvbmFsVW5pdDEQMA4GA1UEAxMHS3lpdiBDQTESMBAG
A1UEKRMJbmVmZXJ0ZXN0MSEwHwYJKoZIhvcNAQkBFhJtZUBteWhvc3QubXlkb21h
aW6CCQCdGaq3XrArFTATBgNVHSUEDDAKBggrBgEFBQcDATALBgNVHQ8EBAMCBaAw
DQYJKoZIhvcNAQELBQADggEBAGTfW04Uev+QfrHVy36Uv2AkdNlWL5D2Upj7Q0Xf
HMemvPf0z4JwW1v/kb16FDZ+/yMc5h2sJ3sc9qkzHVtp6y05Kkqk72pEmAbCz/Vp
O1SG/VZcmZvB8t0KyIJa28ViYCPCGl9HoK3QNxQ+Ry/bsdO7Id67B8SeACk8aFdP
ZTW9w3jIXLZsZnp7ukV/ZMdn+jxe2xihv+9cxDVSELDo61a13ASRNzMAPQLchDa/
sW/HWR1bgr6ZPmIrOvM6ts07B4r9bu2BJHDL6SbwX1D7GR8aA6jhXlDw1+VlXrXA
AM8vAPuE9SOBU144KRD5DZbxAbcFllq3R0e+pY+rtawWcQw=
-----END CERTIFICATE-----
